; Function Attrs: mustprogress uwtable
define dso_local void @_ZN5cmake28CreateDefaultGlobalGeneratorEv(ptr noundef nonnull align 8 dereferenceable(2216) %0) local_unnamed_addr #3 align 2 personality ptr @__gxx_personality_v0 {
  %2 = alloca %"class.std::unique_ptr.90", align 8
  %3 = alloca %"class.std::unique_ptr.90", align 8
  call void @_ZN5cmake30EvaluateDefaultGlobalGeneratorEv(ptr dead_on_unwind nonnull writable sret(%"class.std::unique_ptr.90") align 8 %2, ptr noundef nonnull align 8 dereferenceable(2216) %0)
  %4 = load i64, ptr %2, align 8
  store i64 %4, ptr %3, align 8
  invoke void @_ZN5cmake18SetGlobalGeneratorESt10unique_ptrI17cmGlobalGeneratorSt14default_deleteIS1_EE(ptr noundef nonnull align 8 dereferenceable(2216) %0, ptr noundef nonnull %3)
          to label %5 unwind label %10

5:                                                ; preds = %1
  %6 = load ptr, ptr %3, align 8
  %.not.i = icmp eq ptr %6, null
  br i1 %.not.i, label %_ZNSt10unique_ptrI17cmGlobalGeneratorSt14default_deleteIS0_EED2Ev.exit4, label %_ZNKSt14default_deleteI17cmGlobalGeneratorEclEPS0_.exit.i

_ZNKSt14default_deleteI17cmGlobalGeneratorEclEPS0_.exit.i: ; preds = %5
  %7 = load ptr, ptr %6, align 8
  %8 = getelementptr inbounds i8, ptr %7, i64 8
  %9 = load ptr, ptr %8, align 8
  tail call void %9(ptr noundef nonnull align 8 dereferenceable(1778) %6) #30
  br label %_ZNSt10unique_ptrI17cmGlobalGeneratorSt14default_deleteIS0_EED2Ev.exit4

_ZNSt10unique_ptrI17cmGlobalGeneratorSt14default_deleteIS0_EED2Ev.exit4: ; preds = %_ZNKSt14default_deleteI17cmGlobalGeneratorEclEPS0_.exit.i, %5
  ret void

10:                                               ; preds = %1
  %11 = landingpad { ptr, i32 }
          cleanup
  %12 = load ptr, ptr %3, align 8
  %.not.i5 = icmp eq ptr %12, null
  br i1 %.not.i5, label %_ZNSt10unique_ptrI17cmGlobalGeneratorSt14default_deleteIS0_EED2Ev.exit10, label %_ZNKSt14default_deleteI17cmGlobalGeneratorEclEPS0_.exit.i6

_ZNKSt14default_deleteI17cmGlobalGeneratorEclEPS0_.exit.i6: ; preds = %10
  %13 = load ptr, ptr %12, align 8
  %14 = getelementptr inbounds i8, ptr %13, i64 8
  %15 = load ptr, ptr %14, align 8
  tail call void %15(ptr noundef nonnull align 8 dereferenceable(1778) %12) #30
  br label %_ZNSt10unique_ptrI17cmGlobalGeneratorSt14default_deleteIS0_EED2Ev.exit10

_ZNSt10unique_ptrI17cmGlobalGeneratorSt14default_deleteIS0_EED2Ev.exit10: ; preds = %_ZNKSt14default_deleteI17cmGlobalGeneratorEclEPS0_.exit.i6, %10
  resume { ptr, i32 } %11
}